target datalayout = "e-m:e-p270:32:32-p271:32:32-p272:64:64-i64:64-i128:128-f80:128-n8:16:32:64-S128"
target triple = "x86_64-unknown-linux-gnu"

%"struct.smt::theory_seq::expr_dep" = type { ptr, ptr, ptr }
%"class.smt::theory_seq::solution_map" = type { ptr, ptr, %class.svector, %"class.smt::theory_seq::eval_cache", %class.ref_vector, %class.ref_vector, %class.ptr_vector.1, %class.svector.3, %class.svector.5 }
%class.svector = type { %class.vector }
%class.vector = type { ptr }
%"class.smt::theory_seq::eval_cache" = type { %class.svector, %class.ref_vector }
%class.ref_vector = type { %class.ref_vector_core }
%class.ref_vector_core = type { %class.ref_manager_wrapper, %class.ptr_vector }
%class.ref_manager_wrapper = type { ptr }
%class.ptr_vector = type { %class.vector.0 }
%class.vector.0 = type { ptr }
%class.ptr_vector.1 = type { %class.vector.2 }
%class.vector.2 = type { ptr }
%class.svector.3 = type { %class.vector.4 }
%class.vector.4 = type { ptr }
%class.svector.5 = type { %class.vector.6 }
%class.vector.6 = type { ptr }
%class.ast = type { i32, i24, i32, i32 }

; Function Attrs: mustprogress nounwind uwtable
define linkonce_odr hidden noundef nonnull align 8 dereferenceable(24) ptr @_ZNK6vectorIN3smt10theory_seq8expr_depELb0EjEixEj(ptr noundef nonnull align 8 dereferenceable(8) %this, i32 noundef %idx) #4 comdat align 2 {
entry:
  %this.addr = alloca ptr, align 8
  %idx.addr = alloca i32, align 4
  store ptr %this, ptr %this.addr, align 8
  store i32 %idx, ptr %idx.addr, align 4
  %this1 = load ptr, ptr %this.addr, align 8
  %m_data = getelementptr inbounds %class.vector, ptr %this1, i32 0, i32 0
  %0 = load ptr, ptr %m_data, align 8
  %1 = load i32, ptr %idx.addr, align 4
  %idxprom = zext i32 %1 to i64
  %arrayidx = getelementptr inbounds %"struct.smt::theory_seq::expr_dep", ptr %0, i64 %idxprom
  ret ptr %arrayidx
}

; Function Attrs: mustprogress nounwind uwtable
define linkonce_odr hidden noundef i32 @_ZNK6vectorIN3smt10theory_seq8expr_depELb0EjE4sizeEv(ptr noundef nonnull align 8 dereferenceable(8) %this) #4 comdat align 2 {
entry:
  %retval = alloca i32, align 4
  %this.addr = alloca ptr, align 8
  store ptr %this, ptr %this.addr, align 8
  %this1 = load ptr, ptr %this.addr, align 8
  %m_data = getelementptr inbounds %class.vector, ptr %this1, i32 0, i32 0
  %0 = load ptr, ptr %m_data, align 8
  %cmp = icmp eq ptr %0, null
  br i1 %cmp, label %if.then, label %if.end

if.then:                                          ; preds = %entry
  store i32 0, ptr %retval, align 4
  br label %return

if.end:                                           ; preds = %entry
  %m_data2 = getelementptr inbounds %class.vector, ptr %this1, i32 0, i32 0
  %1 = load ptr, ptr %m_data2, align 8
  %arrayidx = getelementptr inbounds i32, ptr %1, i64 -1
  %2 = load i32, ptr %arrayidx, align 4
  store i32 %2, ptr %retval, align 4
  br label %return

return:                                           ; preds = %if.end, %if.then
  %3 = load i32, ptr %retval, align 4
  ret i32 %3
}

; Function Attrs: mustprogress nounwind uwtable
define linkonce_odr hidden noundef i32 @_ZNK3ast6get_idEv(ptr noundef nonnull align 4 dereferenceable(16) %this) #4 comdat align 2 {
entry:
  %this.addr = alloca ptr, align 8
  store ptr %this, ptr %this.addr, align 8
  %this1 = load ptr, ptr %this.addr, align 8
  %m_id = getelementptr inbounds %class.ast, ptr %this1, i32 0, i32 0
  %0 = load i32, ptr %m_id, align 4
  ret i32 %0
}

; Function Attrs: mustprogress uwtable
define linkonce_odr hidden noundef zeroext i1 @_ZNK3smt10theory_seq12solution_map4findEP4exprRNS0_8expr_depE(ptr noundef nonnull align 8 dereferenceable(104) %this, ptr noundef %v, ptr noundef nonnull align 8 dereferenceable(24) %r) #5 comdat align 2 {
entry:
  %this.addr = alloca ptr, align 8
  %v.addr = alloca ptr, align 8
  %r.addr = alloca ptr, align 8
  store ptr %this, ptr %this.addr, align 8
  store ptr %v, ptr %v.addr, align 8
  store ptr %r, ptr %r.addr, align 8
  %this1 = load ptr, ptr %this.addr, align 8
  %0 = load ptr, ptr %v.addr, align 8
  %call = call noundef i32 @_ZNK3ast6get_idEv(ptr noundef nonnull align 4 dereferenceable(16) %0)
  %m_map = getelementptr inbounds %"class.smt::theory_seq::solution_map", ptr %this1, i32 0, i32 2
  %call2 = call noundef i32 @_ZNK6vectorIN3smt10theory_seq8expr_depELb0EjE4sizeEv(ptr noundef nonnull align 8 dereferenceable(8) %m_map)
  %cmp = icmp ult i32 %call, %call2
  br i1 %cmp, label %land.lhs.true, label %land.end

land.lhs.true:                                    ; preds = %entry
  %m_map3 = getelementptr inbounds %"class.smt::theory_seq::solution_map", ptr %this1, i32 0, i32 2
  %1 = load ptr, ptr %v.addr, align 8
  %call4 = call noundef i32 @_ZNK3ast6get_idEv(ptr noundef nonnull align 4 dereferenceable(16) %1)
  %call5 = call noundef nonnull align 8 dereferenceable(24) ptr @_ZNK6vectorIN3smt10theory_seq8expr_depELb0EjEixEj(ptr noundef nonnull align 8 dereferenceable(8) %m_map3, i32 noundef %call4)
  %e = getelementptr inbounds %"struct.smt::theory_seq::expr_dep", ptr %call5, i32 0, i32 1
  %2 = load ptr, ptr %e, align 8
  %tobool = icmp ne ptr %2, null
  br i1 %tobool, label %land.rhs, label %land.end

land.rhs:                                         ; preds = %land.lhs.true
  %m_map6 = getelementptr inbounds %"class.smt::theory_seq::solution_map", ptr %this1, i32 0, i32 2
  %3 = load ptr, ptr %v.addr, align 8
  %call7 = call noundef i32 @_ZNK3ast6get_idEv(ptr noundef nonnull align 4 dereferenceable(16) %3)
  %call8 = call noundef nonnull align 8 dereferenceable(24) ptr @_ZNK6vectorIN3smt10theory_seq8expr_depELb0EjEixEj(ptr noundef nonnull align 8 dereferenceable(8) %m_map6, i32 noundef %call7)
  %4 = load ptr, ptr %r.addr, align 8
  call void @llvm.memcpy.p0.p0.i64(ptr align 8 %4, ptr align 8 %call8, i64 24, i1 false)
  br label %land.end

land.end:                                         ; preds = %land.rhs, %land.lhs.true, %entry
  %5 = phi i1 [ false, %land.lhs.true ], [ false, %entry ], [ true, %land.rhs ]
  ret i1 %5
}

; Function Attrs: mustprogress nounwind uwtable
define linkonce_odr hidden void @_ZN3smt10theory_seq8expr_depC2Ev(ptr noundef nonnull align 8 dereferenceable(24) %this) unnamed_addr #4 comdat align 2 {
entry:
  %this.addr = alloca ptr, align 8
  store ptr %this, ptr %this.addr, align 8
  %this1 = load ptr, ptr %this.addr, align 8
  %v = getelementptr inbounds %"struct.smt::theory_seq::expr_dep", ptr %this1, i32 0, i32 0
  store ptr null, ptr %v, align 8
  %e = getelementptr inbounds %"struct.smt::theory_seq::expr_dep", ptr %this1, i32 0, i32 1
  store ptr null, ptr %e, align 8
  %d = getelementptr inbounds %"struct.smt::theory_seq::expr_dep", ptr %this1, i32 0, i32 2
  store ptr null, ptr %d, align 8
  ret void
}

; Function Attrs: mustprogress uwtable
define hidden noundef ptr @_ZN3smt10theory_seq12solution_map4findEP4expr(ptr noundef nonnull align 8 dereferenceable(104) %this, ptr noundef %e) #5 align 2 {
entry:
  %this.addr = alloca ptr, align 8
  %e.addr = alloca ptr, align 8
  %value = alloca %"struct.smt::theory_seq::expr_dep", align 8
  store ptr %this, ptr %this.addr, align 8
  store ptr %e, ptr %e.addr, align 8
  %this1 = load ptr, ptr %this.addr, align 8
  call void @_ZN3smt10theory_seq8expr_depC2Ev(ptr noundef nonnull align 8 dereferenceable(24) %value)
  br label %while.cond

while.cond:                                       ; preds = %while.body, %entry
  %0 = load ptr, ptr %e.addr, align 8
  %call = call noundef zeroext i1 @_ZNK3smt10theory_seq12solution_map4findEP4exprRNS0_8expr_depE(ptr noundef nonnull align 8 dereferenceable(104) %this1, ptr noundef %0, ptr noundef nonnull align 8 dereferenceable(24) %value)
  br i1 %call, label %while.body, label %while.end

while.body:                                       ; preds = %while.cond
  %e2 = getelementptr inbounds %"struct.smt::theory_seq::expr_dep", ptr %value, i32 0, i32 1
  %1 = load ptr, ptr %e2, align 8
  store ptr %1, ptr %e.addr, align 8
  br label %while.cond, !llvm.loop !7

while.end:                                        ; preds = %while.cond
  %2 = load ptr, ptr %e.addr, align 8
  ret ptr %2
}