; Function Attrs: mustprogress nofree norecurse nosync nounwind willreturn memory(read, inaccessiblemem: none) uwtable
define hidden noundef ptr @_ZN3smt10theory_seq12solution_map4findEP4expr(ptr nocapture noundef nonnull readonly align 8 dereferenceable(104) %this, ptr noundef readonly %e) local_unnamed_addr #4 align 2 {
entry:
  %m_map.i = getelementptr inbounds i8, ptr %this, i64 16
  %0 = load ptr, ptr %m_map.i, align 8
  %cmp.i.i = icmp eq ptr %0, null
  br i1 %cmp.i.i, label %while.end, label %entry.split

entry.split:                                      ; preds = %entry
  %arrayidx.i.i = getelementptr inbounds i8, ptr %0, i64 -4
  %1 = load i32, ptr %arrayidx.i.i, align 4
  br label %while.cond

while.cond:                                       ; preds = %land.lhs.true.i, %entry.split
  %e.addr.0 = phi ptr [ %e, %entry.split ], [ %3, %land.lhs.true.i ]
  %2 = load i32, ptr %e.addr.0, align 4
  %cmp.i = icmp ult i32 %2, %1
  br i1 %cmp.i, label %land.lhs.true.i, label %while.end

land.lhs.true.i:                                  ; preds = %while.cond
  %idxprom.i.i = zext i32 %2 to i64
  %e.i = getelementptr inbounds %"struct.smt::theory_seq::expr_dep", ptr %0, i64 %idxprom.i.i, i32 1
  %3 = load ptr, ptr %e.i, align 8
  %tobool.not.i = icmp eq ptr %3, null
  br i1 %tobool.not.i, label %while.end, label %while.cond, !llvm.loop !9

while.end:                                        ; preds = %while.cond, %land.lhs.true.i, %entry
  %.us-phi = phi ptr [ %e, %entry ], [ %e.addr.0, %land.lhs.true.i ], [ %e.addr.0, %while.cond ]
  ret ptr %.us-phi
}